target datalayout = "e-m:e-p270:32:32-p271:32:32-p272:64:64-i64:64-i128:128-f80:128-n8:16:32:64-S128"
target triple = "x86_64-pc-linux-gnu"

%struct.AVFilterContext = type { ptr, ptr, ptr, ptr, ptr, i32, ptr, ptr, i32, ptr, ptr, i32, i32, ptr, ptr, ptr, ptr, i32, ptr, i32, i32 }
%struct.LUT2Context = type { ptr, %struct.FFFrameSync, i32, [4 x ptr], [4 x ptr], [6 x double], [4 x ptr], [4 x i32], [4 x i32], [4 x i32], [4 x i32], [4 x i32], [4 x i32], i32, i32, i32, i32, i32, i32, i32, ptr, ptr }
%struct.FFFrameSync = type { ptr, ptr, i32, %struct.AVRational, i64, ptr, ptr, i32, i32, i8, i8, ptr, i32, i32, i32, i32 }
%struct.AVRational = type { i32, i32 }

; Function Attrs: cold nounwind optsize uwtable
define internal void @uninit(ptr noundef %0) #1 {
  %2 = alloca ptr, align 8
  %3 = alloca ptr, align 8
  %4 = alloca i32, align 4
  store ptr %0, ptr %2, align 8, !tbaa !4
  call void @llvm.lifetime.start.p0(i64 8, ptr %3) #12
  %5 = load ptr, ptr %2, align 8, !tbaa !4
  %6 = getelementptr inbounds nuw %struct.AVFilterContext, ptr %5, i32 0, i32 9
  %7 = load ptr, ptr %6, align 8, !tbaa !9
  store ptr %7, ptr %3, align 8, !tbaa !22
  call void @llvm.lifetime.start.p0(i64 4, ptr %4) #12
  %8 = load ptr, ptr %3, align 8, !tbaa !22
  %9 = getelementptr inbounds nuw %struct.LUT2Context, ptr %8, i32 0, i32 1
  call void @ff_framesync_uninit(ptr noundef %9)
  %10 = load ptr, ptr %3, align 8, !tbaa !22
  %11 = getelementptr inbounds nuw %struct.LUT2Context, ptr %10, i32 0, i32 20
  call void @av_frame_free(ptr noundef %11)
  store i32 0, ptr %4, align 4, !tbaa !24
  br label %12

12:                                               ; preds = %37, %1
  %13 = load i32, ptr %4, align 4, !tbaa !24
  %14 = icmp slt i32 %13, 4
  br i1 %14, label %15, label %40

15:                                               ; preds = %12
  %16 = load ptr, ptr %3, align 8, !tbaa !22
  %17 = getelementptr inbounds nuw %struct.LUT2Context, ptr %16, i32 0, i32 4
  %18 = load i32, ptr %4, align 4, !tbaa !24
  %19 = sext i32 %18 to i64
  %20 = getelementptr inbounds [4 x ptr], ptr %17, i64 0, i64 %19
  %21 = load ptr, ptr %20, align 8, !tbaa !25
  call void @av_expr_free(ptr noundef %21)
  %22 = load ptr, ptr %3, align 8, !tbaa !22
  %23 = getelementptr inbounds nuw %struct.LUT2Context, ptr %22, i32 0, i32 4
  %24 = load i32, ptr %4, align 4, !tbaa !24
  %25 = sext i32 %24 to i64
  %26 = getelementptr inbounds [4 x ptr], ptr %23, i64 0, i64 %25
  store ptr null, ptr %26, align 8, !tbaa !25
  %27 = load ptr, ptr %3, align 8, !tbaa !22
  %28 = getelementptr inbounds nuw %struct.LUT2Context, ptr %27, i32 0, i32 3
  %29 = load i32, ptr %4, align 4, !tbaa !24
  %30 = sext i32 %29 to i64
  %31 = getelementptr inbounds [4 x ptr], ptr %28, i64 0, i64 %30
  call void @av_freep(ptr noundef %31)
  %32 = load ptr, ptr %3, align 8, !tbaa !22
  %33 = getelementptr inbounds nuw %struct.LUT2Context, ptr %32, i32 0, i32 6
  %34 = load i32, ptr %4, align 4, !tbaa !24
  %35 = sext i32 %34 to i64
  %36 = getelementptr inbounds [4 x ptr], ptr %33, i64 0, i64 %35
  call void @av_freep(ptr noundef %36)
  br label %37

37:                                               ; preds = %15
  %38 = load i32, ptr %4, align 4, !tbaa !24
  %39 = add nsw i32 %38, 1
  store i32 %39, ptr %4, align 4, !tbaa !24
  br label %12, !llvm.loop !27

40:                                               ; preds = %12
  call void @llvm.lifetime.end.p0(i64 4, ptr %4) #12
  call void @llvm.lifetime.end.p0(i64 8, ptr %3) #12
  ret void
}