; Function Attrs: cold nounwind optsize uwtable
define internal void @uninit(ptr noundef readonly captures(none) %0) #1 {
  %2 = getelementptr inbounds nuw i8, ptr %0, i64 72
  %3 = load ptr, ptr %2, align 8, !tbaa !4
  %4 = getelementptr inbounds nuw i8, ptr %3, i64 8
  tail call void @ff_framesync_uninit(ptr noundef nonnull %4) #11
  %5 = getelementptr inbounds nuw i8, ptr %3, i64 384
  tail call void @av_frame_free(ptr noundef nonnull %5) #11
  %6 = getelementptr inbounds nuw i8, ptr %3, i64 144
  %7 = getelementptr inbounds nuw i8, ptr %3, i64 112
  %8 = getelementptr inbounds nuw i8, ptr %3, i64 224
  br label %9

9:                                                ; preds = %1, %9
  %indvars.iv = phi i64 [ 0, %1 ], [ %indvars.iv.next, %9 ]
  %10 = getelementptr inbounds nuw [4 x ptr], ptr %6, i64 0, i64 %indvars.iv
  %11 = load ptr, ptr %10, align 8, !tbaa !20
  tail call void @av_expr_free(ptr noundef %11) #11
  store ptr null, ptr %10, align 8, !tbaa !20
  %12 = getelementptr inbounds nuw [4 x ptr], ptr %7, i64 0, i64 %indvars.iv
  tail call void @av_freep(ptr noundef nonnull %12) #11
  %13 = getelementptr inbounds nuw [4 x ptr], ptr %8, i64 0, i64 %indvars.iv
  tail call void @av_freep(ptr noundef nonnull %13) #11
  %indvars.iv.next = add nuw nsw i64 %indvars.iv, 1
  %exitcond.not = icmp eq i64 %indvars.iv.next, 4
  br i1 %exitcond.not, label %14, label %9, !llvm.loop !22

14:                                               ; preds = %9
  ret void
}